; Function Attrs: nounwind uwtable
define internal range(i32 -1, 1) i32 @H5O__fill_new_shared_link(ptr noundef %0, ptr noundef %1, ptr noundef %2) #0 {
  %4 = load i32, ptr %2, align 8
  %.not = icmp eq i32 %4, 0
  br i1 %.not, label %12, label %5

5:                                                ; preds = %3
  %6 = tail call i32 @H5O__shared_link(ptr noundef %0, ptr noundef %1, ptr noundef nonnull @H5O_MSG_FILL_NEW, ptr noundef nonnull %2) #8
  %7 = icmp slt i32 %6, 0
  br i1 %7, label %8, label %12

8:                                                ; preds = %5
  %9 = load i64, ptr @H5E_OHDR_g, align 8
  %10 = load i64, ptr @H5E_CANTINC_g, align 8
  %11 = tail call i32 (ptr, ptr, i32, i64, i64, ptr, ...) @H5E_printf_stack(ptr noundef nonnull @.str.10, ptr noundef nonnull @__func__.H5O__fill_new_shared_link, i32 noundef 257, i64 noundef %9, i64 noundef %10, ptr noundef nonnull @.str.24) #8
  br label %12

12:                                               ; preds = %3, %5, %8
  %.0 = phi i32 [ -1, %8 ], [ 0, %5 ], [ 0, %3 ]
  ret i32 %.0
}